; ModuleID = '2/507.c'
source_filename = "2/507.c"
target datalayout = "e-m:e-p270:32:32-p271:32:32-p272:64:64-i64:64-f80:128-n8:16:32:64-S128"
target triple = "x86_64-pc-linux-gnu"

@.str = private unnamed_addr constant [3 x i8] c"%d\00", align 1
@.str.1 = private unnamed_addr constant [5 x i8] c"%d%s\00", align 1
@.str.2 = private unnamed_addr constant [7 x i8] c"%c\0A%d\0A\00", align 1
@.str.3 = private unnamed_addr constant [4 x i8] c"%d\0A\00", align 1

; Function Attrs: noinline nounwind uwtable
define dso_local i32 @main() #0 {
  %1 = alloca i32, align 4
  %2 = alloca i32, align 4
  %3 = alloca i32, align 4
  %4 = alloca i32, align 4
  %5 = alloca i32, align 4
  %6 = alloca i32, align 4
  %7 = alloca i32, align 4
  %8 = alloca [26 x i32], align 16
  %9 = alloca [26 x [1000 x i32]], align 16
  %10 = alloca [50 x i8], align 16
  store i32 0, i32* %1, align 4
  %11 = bitcast [26 x i32]* %8 to i8*
  call void @llvm.memset.p0i8.i64(i8* align 16 %11, i8 0, i64 104, i1 false)
  %12 = bitcast [26 x [1000 x i32]]* %9 to i8*
  call void @llvm.memset.p0i8.i64(i8* align 16 %12, i8 0, i64 104000, i1 false)
  %13 = call i32 (i8*, ...) @__isoc99_scanf(i8* getelementptr inbounds ([3 x i8], [3 x i8]* @.str, i64 0, i64 0), i32* %7)
  store i32 0, i32* %6, align 4
  br label %14

14:                                               ; preds = %73, %0
  %15 = load i32, i32* %6, align 4
  %16 = load i32, i32* %7, align 4
  %17 = icmp slt i32 %15, %16
  br i1 %17, label %18, label %76

18:                                               ; preds = %14
  store i32 0, i32* %2, align 4
  br label %19

19:                                               ; preds = %26, %18
  %20 = load i32, i32* %2, align 4
  %21 = icmp slt i32 %20, 50
  br i1 %21, label %22, label %29

22:                                               ; preds = %19
  %23 = load i32, i32* %2, align 4
  %24 = sext i32 %23 to i64
  %25 = getelementptr inbounds [50 x i8], [50 x i8]* %10, i64 0, i64 %24
  store i8 0, i8* %25, align 1
  br label %26

26:                                               ; preds = %22
  %27 = load i32, i32* %2, align 4
  %28 = add nsw i32 %27, 1
  store i32 %28, i32* %2, align 4
  br label %19

29:                                               ; preds = %19
  %30 = getelementptr inbounds [50 x i8], [50 x i8]* %10, i64 0, i64 0
  %31 = call i32 (i8*, ...) @__isoc99_scanf(i8* getelementptr inbounds ([5 x i8], [5 x i8]* @.str.1, i64 0, i64 0), i32* %5, i8* %30)
  store i32 0, i32* %2, align 4
  br label %32

32:                                               ; preds = %69, %29
  %33 = load i32, i32* %2, align 4
  %34 = icmp slt i32 %33, 26
  br i1 %34, label %35, label %72

35:                                               ; preds = %32
  store i32 0, i32* %3, align 4
  br label %36

36:                                               ; preds = %65, %35
  %37 = load i32, i32* %3, align 4
  %38 = icmp slt i32 %37, 26
  br i1 %38, label %39, label %68

39:                                               ; preds = %36
  %40 = load i32, i32* %2, align 4
  %41 = sext i32 %40 to i64
  %42 = getelementptr inbounds [50 x i8], [50 x i8]* %10, i64 0, i64 %41
  %43 = load i8, i8* %42, align 1
  %44 = sext i8 %43 to i32
  %45 = load i32, i32* %3, align 4
  %46 = add nsw i32 65, %45
  %47 = icmp eq i32 %44, %46
  br i1 %47, label %48, label %64

48:                                               ; preds = %39
  %49 = load i32, i32* %5, align 4
  %50 = load i32, i32* %3, align 4
  %51 = sext i32 %50 to i64
  %52 = getelementptr inbounds [26 x [1000 x i32]], [26 x [1000 x i32]]* %9, i64 0, i64 %51
  %53 = load i32, i32* %3, align 4
  %54 = sext i32 %53 to i64
  %55 = getelementptr inbounds [26 x i32], [26 x i32]* %8, i64 0, i64 %54
  %56 = load i32, i32* %55, align 4
  %57 = sext i32 %56 to i64
  %58 = getelementptr inbounds [1000 x i32], [1000 x i32]* %52, i64 0, i64 %57
  store i32 %49, i32* %58, align 4
  %59 = load i32, i32* %3, align 4
  %60 = sext i32 %59 to i64
  %61 = getelementptr inbounds [26 x i32], [26 x i32]* %8, i64 0, i64 %60
  %62 = load i32, i32* %61, align 4
  %63 = add nsw i32 %62, 1
  store i32 %63, i32* %61, align 4
  br label %68

64:                                               ; preds = %39
  br label %65

65:                                               ; preds = %64
  %66 = load i32, i32* %3, align 4
  %67 = add nsw i32 %66, 1
  store i32 %67, i32* %3, align 4
  br label %36

68:                                               ; preds = %48, %36
  br label %69

69:                                               ; preds = %68
  %70 = load i32, i32* %2, align 4
  %71 = add nsw i32 %70, 1
  store i32 %71, i32* %2, align 4
  br label %32

72:                                               ; preds = %32
  br label %73

73:                                               ; preds = %72
  %74 = load i32, i32* %6, align 4
  %75 = add nsw i32 %74, 1
  store i32 %75, i32* %6, align 4
  br label %14

76:                                               ; preds = %14
  store i32 0, i32* %6, align 4
  store i32 0, i32* %2, align 4
  br label %77

77:                                               ; preds = %94, %76
  %78 = load i32, i32* %2, align 4
  %79 = icmp slt i32 %78, 26
  br i1 %79, label %80, label %97

80:                                               ; preds = %77
  %81 = load i32, i32* %2, align 4
  %82 = sext i32 %81 to i64
  %83 = getelementptr inbounds [26 x i32], [26 x i32]* %8, i64 0, i64 %82
  %84 = load i32, i32* %83, align 4
  %85 = load i32, i32* %6, align 4
  %86 = icmp sgt i32 %84, %85
  br i1 %86, label %87, label %93

87:                                               ; preds = %80
  %88 = load i32, i32* %2, align 4
  %89 = sext i32 %88 to i64
  %90 = getelementptr inbounds [26 x i32], [26 x i32]* %8, i64 0, i64 %89
  %91 = load i32, i32* %90, align 4
  store i32 %91, i32* %6, align 4
  %92 = load i32, i32* %2, align 4
  store i32 %92, i32* %4, align 4
  br label %93

93:                                               ; preds = %87, %80
  br label %94

94:                                               ; preds = %93
  %95 = load i32, i32* %2, align 4
  %96 = add nsw i32 %95, 1
  store i32 %96, i32* %2, align 4
  br label %77

97:                                               ; preds = %77
  %98 = load i32, i32* %4, align 4
  %99 = add nsw i32 65, %98
  %100 = load i32, i32* %6, align 4
  %101 = call i32 (i8*, ...) @printf(i8* getelementptr inbounds ([7 x i8], [7 x i8]* @.str.2, i64 0, i64 0), i32 %99, i32 %100)
  store i32 0, i32* %2, align 4
  br label %102

102:                                              ; preds = %115, %97
  %103 = load i32, i32* %2, align 4
  %104 = load i32, i32* %6, align 4
  %105 = icmp slt i32 %103, %104
  br i1 %105, label %106, label %118

106:                                              ; preds = %102
  %107 = load i32, i32* %4, align 4
  %108 = sext i32 %107 to i64
  %109 = getelementptr inbounds [26 x [1000 x i32]], [26 x [1000 x i32]]* %9, i64 0, i64 %108
  %110 = load i32, i32* %2, align 4
  %111 = sext i32 %110 to i64
  %112 = getelementptr inbounds [1000 x i32], [1000 x i32]* %109, i64 0, i64 %111
  %113 = load i32, i32* %112, align 4
  %114 = call i32 (i8*, ...) @printf(i8* getelementptr inbounds ([4 x i8], [4 x i8]* @.str.3, i64 0, i64 0), i32 %113)
  br label %115

115:                                              ; preds = %106
  %116 = load i32, i32* %2, align 4
  %117 = add nsw i32 %116, 1
  store i32 %117, i32* %2, align 4
  br label %102

118:                                              ; preds = %102
  %119 = load i32, i32* %1, align 4
  ret i32 %119
}

; Function Attrs: argmemonly nounwind willreturn
declare void @llvm.memset.p0i8.i64(i8* nocapture writeonly, i8, i64, i1 immarg) #1

declare dso_local i32 @__isoc99_scanf(i8*, ...) #2

declare dso_local i32 @printf(i8*, ...) #2


!llvm.module.flags = !{!0}
!llvm.ident = !{!1}

!0 = !{i32 1, !"wchar_size", i32 4}
!1 = !{!"clang version 10.0.0-4ubuntu1 "}
